target datalayout = "e-m:e-p270:32:32-p271:32:32-p272:64:64-i64:64-i128:128-f80:128-n8:16:32:64-S128"
target triple = "x86_64-pc-linux-gnu"

; Function Attrs: mustprogress nounwind uwtable
define internal noundef zeroext i16 @_ZL18saneSonyCameraInfohhhhhh(i8 noundef zeroext %0, i8 noundef zeroext %1, i8 noundef zeroext %2, i8 noundef zeroext %3, i8 noundef zeroext %4, i8 noundef zeroext %5) #2 {
  %7 = alloca i16, align 2
  %8 = alloca i8, align 1
  %9 = alloca i8, align 1
  %10 = alloca i8, align 1
  %11 = alloca i8, align 1
  %12 = alloca i8, align 1
  %13 = alloca i8, align 1
  store i8 %0, ptr %8, align 1, !tbaa !104
  store i8 %1, ptr %9, align 1, !tbaa !104
  store i8 %2, ptr %10, align 1, !tbaa !104
  store i8 %3, ptr %11, align 1, !tbaa !104
  store i8 %4, ptr %12, align 1, !tbaa !104
  store i8 %5, ptr %13, align 1, !tbaa !104
  %14 = load i8, ptr %8, align 1, !tbaa !104
  %15 = zext i8 %14 to i32
  %16 = ashr i32 %15, 4
  %17 = icmp sgt i32 %16, 9
  br i1 %17, label %18, label %19

18:                                               ; preds = %6
  store i16 0, ptr %7, align 2
  br label %97

19:                                               ; preds = %6
  %20 = load i8, ptr %8, align 1, !tbaa !104
  %21 = zext i8 %20 to i32
  %22 = and i32 %21, 15
  %23 = icmp sgt i32 %22, 9
  br i1 %23, label %24, label %25

24:                                               ; preds = %19
  store i16 0, ptr %7, align 2
  br label %97

25:                                               ; preds = %19
  %26 = load i8, ptr %9, align 1, !tbaa !104
  %27 = zext i8 %26 to i32
  %28 = ashr i32 %27, 4
  %29 = icmp sgt i32 %28, 9
  br i1 %29, label %30, label %31

30:                                               ; preds = %25
  store i16 0, ptr %7, align 2
  br label %97

31:                                               ; preds = %25
  %32 = load i8, ptr %9, align 1, !tbaa !104
  %33 = zext i8 %32 to i32
  %34 = and i32 %33, 15
  %35 = icmp sgt i32 %34, 9
  br i1 %35, label %36, label %37

36:                                               ; preds = %31
  store i16 0, ptr %7, align 2
  br label %97

37:                                               ; preds = %31
  %38 = load i8, ptr %10, align 1, !tbaa !104
  %39 = zext i8 %38 to i32
  %40 = ashr i32 %39, 4
  %41 = icmp sgt i32 %40, 9
  br i1 %41, label %42, label %43

42:                                               ; preds = %37
  store i16 0, ptr %7, align 2
  br label %97

43:                                               ; preds = %37
  %44 = load i8, ptr %10, align 1, !tbaa !104
  %45 = zext i8 %44 to i32
  %46 = and i32 %45, 15
  %47 = icmp sgt i32 %46, 9
  br i1 %47, label %48, label %49

48:                                               ; preds = %43
  store i16 0, ptr %7, align 2
  br label %97

49:                                               ; preds = %43
  %50 = load i8, ptr %11, align 1, !tbaa !104
  %51 = zext i8 %50 to i32
  %52 = ashr i32 %51, 4
  %53 = icmp sgt i32 %52, 9
  br i1 %53, label %54, label %55

54:                                               ; preds = %49
  store i16 0, ptr %7, align 2
  br label %97

55:                                               ; preds = %49
  %56 = load i8, ptr %11, align 1, !tbaa !104
  %57 = zext i8 %56 to i32
  %58 = and i32 %57, 15
  %59 = icmp sgt i32 %58, 9
  br i1 %59, label %60, label %61

60:                                               ; preds = %55
  store i16 0, ptr %7, align 2
  br label %97

61:                                               ; preds = %55
  %62 = load i8, ptr %12, align 1, !tbaa !104
  %63 = zext i8 %62 to i32
  %64 = ashr i32 %63, 4
  %65 = icmp sgt i32 %64, 9
  br i1 %65, label %66, label %67

66:                                               ; preds = %61
  store i16 0, ptr %7, align 2
  br label %97

67:                                               ; preds = %61
  %68 = load i8, ptr %12, align 1, !tbaa !104
  %69 = zext i8 %68 to i32
  %70 = and i32 %69, 15
  %71 = icmp sgt i32 %70, 9
  br i1 %71, label %72, label %73

72:                                               ; preds = %67
  store i16 0, ptr %7, align 2
  br label %97

73:                                               ; preds = %67
  %74 = load i8, ptr %13, align 1, !tbaa !104
  %75 = zext i8 %74 to i32
  %76 = ashr i32 %75, 4
  %77 = icmp sgt i32 %76, 9
  br i1 %77, label %78, label %79

78:                                               ; preds = %73
  store i16 0, ptr %7, align 2
  br label %97

79:                                               ; preds = %73
  %80 = load i8, ptr %13, align 1, !tbaa !104
  %81 = zext i8 %80 to i32
  %82 = and i32 %81, 15
  %83 = icmp sgt i32 %82, 9
  br i1 %83, label %84, label %85

84:                                               ; preds = %79
  store i16 0, ptr %7, align 2
  br label %97

85:                                               ; preds = %79
  br label %86

86:                                               ; preds = %85
  br label %87

87:                                               ; preds = %86
  br label %88

88:                                               ; preds = %87
  br label %89

89:                                               ; preds = %88
  br label %90

90:                                               ; preds = %89
  br label %91

91:                                               ; preds = %90
  br label %92

92:                                               ; preds = %91
  br label %93

93:                                               ; preds = %92
  br label %94

94:                                               ; preds = %93
  br label %95

95:                                               ; preds = %94
  br label %96

96:                                               ; preds = %95
  store i16 1, ptr %7, align 2
  br label %97

97:                                               ; preds = %96, %84, %78, %72, %66, %60, %54, %48, %42, %36, %30, %24, %18
  %98 = load i16, ptr %7, align 2
  ret i16 %98
}