; Function Attrs: mustprogress nofree norecurse nosync nounwind willreturn memory(none) uwtable
define internal fastcc noundef zeroext range(i16 0, 2) i16 @_ZL18saneSonyCameraInfohhhhhh(i8 noundef zeroext %0, i8 noundef zeroext %1, i8 noundef zeroext %2, i8 noundef zeroext %3, i8 noundef zeroext %4, i8 noundef zeroext %5) unnamed_addr #11 {
  %7 = icmp ugt i8 %0, -97
  %8 = and i8 %0, 14
  %9 = icmp samesign ugt i8 %8, 9
  %or.cond = select i1 %7, i1 true, i1 %9
  %10 = icmp ugt i8 %1, -97
  %or.cond14 = or i1 %10, %or.cond
  %11 = and i8 %1, 14
  %12 = icmp samesign ugt i8 %11, 9
  %or.cond16 = select i1 %or.cond14, i1 true, i1 %12
  %13 = icmp ugt i8 %2, -97
  %or.cond17 = or i1 %13, %or.cond16
  %14 = and i8 %2, 14
  %15 = icmp samesign ugt i8 %14, 9
  %or.cond19 = select i1 %or.cond17, i1 true, i1 %15
  %16 = icmp ugt i8 %3, -97
  %or.cond20 = or i1 %16, %or.cond19
  %17 = and i8 %3, 14
  %18 = icmp samesign ugt i8 %17, 9
  %or.cond22 = select i1 %or.cond20, i1 true, i1 %18
  %19 = icmp ugt i8 %4, -97
  %or.cond23 = or i1 %19, %or.cond22
  %20 = and i8 %4, 14
  %21 = icmp samesign ugt i8 %20, 9
  %or.cond25 = select i1 %or.cond23, i1 true, i1 %21
  %22 = icmp ugt i8 %5, -97
  %or.cond26 = or i1 %22, %or.cond25
  %23 = and i8 %5, 14
  %24 = icmp samesign ult i8 %23, 10
  %not.or.cond26 = xor i1 %or.cond26, true
  %narrow = select i1 %not.or.cond26, i1 %24, i1 false
  %.0 = zext i1 %narrow to i16
  ret i16 %.0
}